target datalayout = "e-m:e-p270:32:32-p271:32:32-p272:64:64-i64:64-i128:128-f80:128-n8:16:32:64-S128"
target triple = "x86_64-pc-linux-gnu"

%struct.H5VL_loc_params_t = type { i32, i32, %union.anon }
%union.anon = type { %struct.H5VL_loc_by_idx }
%struct.H5VL_loc_by_idx = type { ptr, i32, i32, i64, i64 }
%struct.H5VL_link_specific_args_t = type { i32, %union.anon.7 }
%union.anon.7 = type { %struct.H5VL_link_iterate_args_t }
%struct.H5VL_link_iterate_args_t = type { i8, i32, i32, ptr, ptr, ptr }

@H5_libterm_g = external global i8, align 1
@.str = private unnamed_addr constant [97 x i8] c"generated/home/dtcxzyw/WorkSpace/Projects/compilers/llvm-opt-benchmark/bench/hdf5/hdf5/src/H5L.c\00", align 1
@H5L_init_g = external global i8, align 1
@H5E_CANTSET_g = external global i64, align 8
@H5E_ARGS_g = external global i64, align 8
@H5E_BADVALUE_g = external global i64, align 8
@H5E_LINK_g = external global i64, align 8
@H5P_LST_DATASET_XFER_ID_g = external global i64, align 8
@H5E_CANTDELETE_g = external global i64, align 8
@.str.56 = private unnamed_addr constant [18 x i8] c"no name specified\00", align 1
@.str.58 = private unnamed_addr constant [29 x i8] c"invalid index type specified\00", align 1
@.str.59 = private unnamed_addr constant [34 x i8] c"invalid iteration order specified\00", align 1
@.str.98 = private unnamed_addr constant [34 x i8] c"can't set object access arguments\00", align 1
@.str.106 = private unnamed_addr constant [22 x i8] c"unable to delete link\00", align 1
@__func__.H5L__delete_by_idx_api_common = private unnamed_addr constant [30 x i8] c"H5L__delete_by_idx_api_common\00", align 1

; Function Attrs: nounwind uwtable
define internal i32 @H5L__delete_by_idx_api_common(i64 noundef %0, ptr noundef %1, i32 noundef %2, i32 noundef %3, i64 noundef %4, i64 noundef %5, ptr noundef %6, ptr noundef %7) #0 {
  %9 = alloca i64, align 8
  %10 = alloca ptr, align 8
  %11 = alloca i32, align 4
  %12 = alloca i32, align 4
  %13 = alloca i64, align 8
  %14 = alloca i64, align 8
  %15 = alloca ptr, align 8
  %16 = alloca ptr, align 8
  %17 = alloca ptr, align 8
  %18 = alloca ptr, align 8
  %19 = alloca %struct.H5VL_link_specific_args_t, align 8
  %20 = alloca %struct.H5VL_loc_params_t, align 8
  %21 = alloca i32, align 4
  %22 = alloca i8, align 1
  store i64 %0, ptr %9, align 8, !tbaa !3
  store ptr %1, ptr %10, align 8, !tbaa !7
  store i32 %2, ptr %11, align 4, !tbaa !12
  store i32 %3, ptr %12, align 4, !tbaa !12
  store i64 %4, ptr %13, align 8, !tbaa !3
  store i64 %5, ptr %14, align 8, !tbaa !3
  store ptr %6, ptr %15, align 8, !tbaa !22
  store ptr %7, ptr %16, align 8, !tbaa !23
  call void @llvm.lifetime.start.p0(i64 8, ptr %17) #8
  store ptr null, ptr %17, align 8, !tbaa !10
  call void @llvm.lifetime.start.p0(i64 8, ptr %18) #8
  %23 = load ptr, ptr %16, align 8, !tbaa !23
  %24 = icmp ne ptr %23, null
  br i1 %24, label %25, label %27

25:                                               ; preds = %8
  %26 = load ptr, ptr %16, align 8, !tbaa !23
  br label %28

27:                                               ; preds = %8
  br label %28

28:                                               ; preds = %27, %25
  %29 = phi ptr [ %26, %25 ], [ %17, %27 ]
  store ptr %29, ptr %18, align 8, !tbaa !23
  call void @llvm.lifetime.start.p0(i64 48, ptr %19) #8
  call void @llvm.lifetime.start.p0(i64 40, ptr %20) #8
  call void @llvm.lifetime.start.p0(i64 4, ptr %21) #8
  store i32 0, ptr %21, align 4, !tbaa !12
  call void @llvm.lifetime.start.p0(i64 1, ptr %22) #8
  store i8 0, ptr %22, align 1, !tbaa !14
  %30 = load i8, ptr @H5L_init_g, align 1, !tbaa !14, !range !16, !noundef !17
  %31 = trunc i8 %30 to i1
  br i1 %31, label %36, label %32

32:                                               ; preds = %28
  %33 = load i8, ptr @H5_libterm_g, align 1, !tbaa !14, !range !16, !noundef !17
  %34 = trunc i8 %33 to i1
  %35 = xor i1 %34, true
  br label %36

36:                                               ; preds = %32, %28
  %37 = phi i1 [ true, %28 ], [ %35, %32 ]
  %38 = xor i1 %37, true
  %39 = xor i1 %38, true
  %40 = zext i1 %39 to i32
  %41 = sext i32 %40 to i64
  %42 = call i64 @llvm.expect.i64(i64 %41, i64 1)
  %43 = icmp ne i64 %42, 0
  br i1 %43, label %44, label %178

44:                                               ; preds = %36
  %45 = load ptr, ptr %10, align 8, !tbaa !7
  %46 = icmp ne ptr %45, null
  br i1 %46, label %47, label %51

47:                                               ; preds = %44
  %48 = load ptr, ptr %10, align 8, !tbaa !7
  %49 = load i8, ptr %48, align 1, !tbaa !18
  %50 = icmp ne i8 %49, 0
  br i1 %50, label %70, label %51

51:                                               ; preds = %47, %44
  br label %52

52:                                               ; preds = %51
  br label %53

53:                                               ; preds = %52
  br label %54

54:                                               ; preds = %53
  %55 = load i64, ptr @H5E_ARGS_g, align 8, !tbaa !3
  %56 = load i64, ptr @H5E_BADVALUE_g, align 8, !tbaa !3
  %57 = call i32 (ptr, ptr, i32, i64, i64, ptr, ...) @H5E_printf_stack(ptr noundef @.str, ptr noundef @__func__.H5L__delete_by_idx_api_common, i32 noundef 895, i64 noundef %55, i64 noundef %56, ptr noundef @.str.56)
  br label %58

58:                                               ; preds = %54
  br label %59

59:                                               ; preds = %58
  store i8 1, ptr %22, align 1, !tbaa !14
  %60 = load i8, ptr %22, align 1, !tbaa !14, !range !16, !noundef !17
  %61 = trunc i8 %60 to i1
  %62 = zext i1 %61 to i8
  store i8 %62, ptr %22, align 1, !tbaa !14
  br label %63

63:                                               ; preds = %59
  br label %64

64:                                               ; preds = %63
  br label %65

65:                                               ; preds = %64
  store i32 -1, ptr %21, align 4, !tbaa !12
  br label %177

66:                                               ; No predecessors!
  br label %67

67:                                               ; preds = %66
  br label %68

68:                                               ; preds = %67
  br label %69

69:                                               ; preds = %68
  br label %70

70:                                               ; preds = %69, %47
  %71 = load i32, ptr %11, align 4, !tbaa !12
  %72 = icmp sle i32 %71, -1
  br i1 %72, label %76, label %73

73:                                               ; preds = %70
  %74 = load i32, ptr %11, align 4, !tbaa !12
  %75 = icmp sge i32 %74, 2
  br i1 %75, label %76, label %95

76:                                               ; preds = %73, %70
  br label %77

77:                                               ; preds = %76
  br label %78

78:                                               ; preds = %77
  br label %79

79:                                               ; preds = %78
  %80 = load i64, ptr @H5E_ARGS_g, align 8, !tbaa !3
  %81 = load i64, ptr @H5E_BADVALUE_g, align 8, !tbaa !3
  %82 = call i32 (ptr, ptr, i32, i64, i64, ptr, ...) @H5E_printf_stack(ptr noundef @.str, ptr noundef @__func__.H5L__delete_by_idx_api_common, i32 noundef 897, i64 noundef %80, i64 noundef %81, ptr noundef @.str.58)
  br label %83

83:                                               ; preds = %79
  br label %84

84:                                               ; preds = %83
  store i8 1, ptr %22, align 1, !tbaa !14
  %85 = load i8, ptr %22, align 1, !tbaa !14, !range !16, !noundef !17
  %86 = trunc i8 %85 to i1
  %87 = zext i1 %86 to i8
  store i8 %87, ptr %22, align 1, !tbaa !14
  br label %88

88:                                               ; preds = %84
  br label %89

89:                                               ; preds = %88
  br label %90

90:                                               ; preds = %89
  store i32 -1, ptr %21, align 4, !tbaa !12
  br label %177

91:                                               ; No predecessors!
  br label %92

92:                                               ; preds = %91
  br label %93

93:                                               ; preds = %92
  br label %94

94:                                               ; preds = %93
  br label %95

95:                                               ; preds = %94, %73
  %96 = load i32, ptr %12, align 4, !tbaa !12
  %97 = icmp sle i32 %96, -1
  br i1 %97, label %101, label %98

98:                                               ; preds = %95
  %99 = load i32, ptr %12, align 4, !tbaa !12
  %100 = icmp sge i32 %99, 3
  br i1 %100, label %101, label %120

101:                                              ; preds = %98, %95
  br label %102

102:                                              ; preds = %101
  br label %103

103:                                              ; preds = %102
  br label %104

104:                                              ; preds = %103
  %105 = load i64, ptr @H5E_ARGS_g, align 8, !tbaa !3
  %106 = load i64, ptr @H5E_BADVALUE_g, align 8, !tbaa !3
  %107 = call i32 (ptr, ptr, i32, i64, i64, ptr, ...) @H5E_printf_stack(ptr noundef @.str, ptr noundef @__func__.H5L__delete_by_idx_api_common, i32 noundef 899, i64 noundef %105, i64 noundef %106, ptr noundef @.str.59)
  br label %108

108:                                              ; preds = %104
  br label %109

109:                                              ; preds = %108
  store i8 1, ptr %22, align 1, !tbaa !14
  %110 = load i8, ptr %22, align 1, !tbaa !14, !range !16, !noundef !17
  %111 = trunc i8 %110 to i1
  %112 = zext i1 %111 to i8
  store i8 %112, ptr %22, align 1, !tbaa !14
  br label %113

113:                                              ; preds = %109
  br label %114

114:                                              ; preds = %113
  br label %115

115:                                              ; preds = %114
  store i32 -1, ptr %21, align 4, !tbaa !12
  br label %177

116:                                              ; No predecessors!
  br label %117

117:                                              ; preds = %116
  br label %118

118:                                              ; preds = %117
  br label %119

119:                                              ; preds = %118
  br label %120

120:                                              ; preds = %119, %98
  %121 = load i64, ptr %9, align 8, !tbaa !3
  %122 = load ptr, ptr %10, align 8, !tbaa !7
  %123 = load i32, ptr %11, align 4, !tbaa !12
  %124 = load i32, ptr %12, align 4, !tbaa !12
  %125 = load i64, ptr %13, align 8, !tbaa !3
  %126 = load i64, ptr %14, align 8, !tbaa !3
  %127 = load ptr, ptr %18, align 8, !tbaa !23
  %128 = call i32 @H5VL_setup_idx_args(i64 noundef %121, ptr noundef %122, i32 noundef %123, i32 noundef %124, i64 noundef %125, i1 noundef zeroext true, i64 noundef %126, ptr noundef %127, ptr noundef %20)
  %129 = icmp slt i32 %128, 0
  br i1 %129, label %130, label %149

130:                                              ; preds = %120
  br label %131

131:                                              ; preds = %130
  br label %132

132:                                              ; preds = %131
  br label %133

133:                                              ; preds = %132
  %134 = load i64, ptr @H5E_LINK_g, align 8, !tbaa !3
  %135 = load i64, ptr @H5E_CANTSET_g, align 8, !tbaa !3
  %136 = call i32 (ptr, ptr, i32, i64, i64, ptr, ...) @H5E_printf_stack(ptr noundef @.str, ptr noundef @__func__.H5L__delete_by_idx_api_common, i32 noundef 904, i64 noundef %134, i64 noundef %135, ptr noundef @.str.98)
  br label %137

137:                                              ; preds = %133
  br label %138

138:                                              ; preds = %137
  store i8 1, ptr %22, align 1, !tbaa !14
  %139 = load i8, ptr %22, align 1, !tbaa !14, !range !16, !noundef !17
  %140 = trunc i8 %139 to i1
  %141 = zext i1 %140 to i8
  store i8 %141, ptr %22, align 1, !tbaa !14
  br label %142

142:                                              ; preds = %138
  br label %143

143:                                              ; preds = %142
  br label %144

144:                                              ; preds = %143
  store i32 -1, ptr %21, align 4, !tbaa !12
  br label %177

145:                                              ; No predecessors!
  br label %146

146:                                              ; preds = %145
  br label %147

147:                                              ; preds = %146
  br label %148

148:                                              ; preds = %147
  br label %149

149:                                              ; preds = %148, %120
  %150 = getelementptr inbounds nuw %struct.H5VL_link_specific_args_t, ptr %19, i32 0, i32 0
  store i32 0, ptr %150, align 8, !tbaa !31
  %151 = load ptr, ptr %18, align 8, !tbaa !23
  %152 = load ptr, ptr %151, align 8, !tbaa !10
  %153 = load i64, ptr @H5P_LST_DATASET_XFER_ID_g, align 8, !tbaa !3
  %154 = load ptr, ptr %15, align 8, !tbaa !22
  %155 = call i32 @H5VL_link_specific(ptr noundef %152, ptr noundef %20, ptr noundef %19, i64 noundef %153, ptr noundef %154)
  %156 = icmp slt i32 %155, 0
  br i1 %156, label %157, label %176

157:                                              ; preds = %149
  br label %158

158:                                              ; preds = %157
  br label %159

159:                                              ; preds = %158
  br label %160

160:                                              ; preds = %159
  %161 = load i64, ptr @H5E_LINK_g, align 8, !tbaa !3
  %162 = load i64, ptr @H5E_CANTDELETE_g, align 8, !tbaa !3
  %163 = call i32 (ptr, ptr, i32, i64, i64, ptr, ...) @H5E_printf_stack(ptr noundef @.str, ptr noundef @__func__.H5L__delete_by_idx_api_common, i32 noundef 911, i64 noundef %161, i64 noundef %162, ptr noundef @.str.106)
  br label %164

164:                                              ; preds = %160
  br label %165

165:                                              ; preds = %164
  store i8 1, ptr %22, align 1, !tbaa !14
  %166 = load i8, ptr %22, align 1, !tbaa !14, !range !16, !noundef !17
  %167 = trunc i8 %166 to i1
  %168 = zext i1 %167 to i8
  store i8 %168, ptr %22, align 1, !tbaa !14
  br label %169

169:                                              ; preds = %165
  br label %170

170:                                              ; preds = %169
  br label %171

171:                                              ; preds = %170
  store i32 -1, ptr %21, align 4, !tbaa !12
  br label %177

172:                                              ; No predecessors!
  br label %173

173:                                              ; preds = %172
  br label %174

174:                                              ; preds = %173
  br label %175

175:                                              ; preds = %174
  br label %176

176:                                              ; preds = %175, %149
  br label %177

177:                                              ; preds = %176, %171, %144, %115, %90, %65
  br label %178

178:                                              ; preds = %177, %36
  %179 = load i32, ptr %21, align 4, !tbaa !12
  call void @llvm.lifetime.end.p0(i64 1, ptr %22) #8
  call void @llvm.lifetime.end.p0(i64 4, ptr %21) #8
  call void @llvm.lifetime.end.p0(i64 40, ptr %20) #8
  call void @llvm.lifetime.end.p0(i64 48, ptr %19) #8
  call void @llvm.lifetime.end.p0(i64 8, ptr %18) #8
  call void @llvm.lifetime.end.p0(i64 8, ptr %17) #8
  ret i32 %179
}