; Function Attrs: nounwind uwtable
define internal fastcc range(i32 -1, 1) i32 @H5L__delete_by_idx_api_common(i64 noundef %0, ptr noundef %1, i32 noundef %2, i32 noundef %3, i64 noundef %4, i64 noundef %5, ptr noundef %6, ptr noundef %7) unnamed_addr #0 {
  %9 = alloca ptr, align 8
  %10 = alloca %struct.H5VL_link_specific_args_t, align 8
  %11 = alloca %struct.H5VL_loc_params_t, align 8
  call void @llvm.lifetime.start.p0(i64 8, ptr nonnull %9) #7
  store ptr null, ptr %9, align 8, !tbaa !20
  %.not = icmp eq ptr %7, null
  %12 = select i1 %.not, ptr %9, ptr %7
  call void @llvm.lifetime.start.p0(i64 48, ptr nonnull %10) #7
  call void @llvm.lifetime.start.p0(i64 40, ptr nonnull %11) #7
  %13 = load i8, ptr @H5L_init_g, align 1, !tbaa !7, !range !9, !noundef !10
  %14 = trunc nuw i8 %13 to i1
  %15 = load i8, ptr @H5_libterm_g, align 1, !range !9
  %16 = trunc nuw i8 %15 to i1
  %17 = xor i1 %16, true
  %18 = select i1 %14, i1 true, i1 %17
  br i1 %18, label %19, label %52, !prof !11

19:                                               ; preds = %8
  %.not28 = icmp eq ptr %1, null
  br i1 %.not28, label %22, label %20

20:                                               ; preds = %19
  %21 = load i8, ptr %1, align 1, !tbaa !14
  %.not29 = icmp eq i8 %21, 0
  br i1 %.not29, label %22, label %26

22:                                               ; preds = %19, %20
  %23 = load i64, ptr @H5E_ARGS_g, align 8, !tbaa !3
  %24 = load i64, ptr @H5E_BADVALUE_g, align 8, !tbaa !3
  %25 = tail call i32 (ptr, ptr, i32, i64, i64, ptr, ...) @H5E_printf_stack(ptr noundef nonnull @.str, ptr noundef nonnull @__func__.H5L__delete_by_idx_api_common, i32 noundef 895, i64 noundef %23, i64 noundef %24, ptr noundef nonnull @.str.56) #7
  br label %52

26:                                               ; preds = %20
  %or.cond = icmp ugt i32 %2, 1
  br i1 %or.cond, label %27, label %31

27:                                               ; preds = %26
  %28 = load i64, ptr @H5E_ARGS_g, align 8, !tbaa !3
  %29 = load i64, ptr @H5E_BADVALUE_g, align 8, !tbaa !3
  %30 = tail call i32 (ptr, ptr, i32, i64, i64, ptr, ...) @H5E_printf_stack(ptr noundef nonnull @.str, ptr noundef nonnull @__func__.H5L__delete_by_idx_api_common, i32 noundef 897, i64 noundef %28, i64 noundef %29, ptr noundef nonnull @.str.58) #7
  br label %52

31:                                               ; preds = %26
  %or.cond3 = icmp ugt i32 %3, 2
  br i1 %or.cond3, label %32, label %36

32:                                               ; preds = %31
  %33 = load i64, ptr @H5E_ARGS_g, align 8, !tbaa !3
  %34 = load i64, ptr @H5E_BADVALUE_g, align 8, !tbaa !3
  %35 = tail call i32 (ptr, ptr, i32, i64, i64, ptr, ...) @H5E_printf_stack(ptr noundef nonnull @.str, ptr noundef nonnull @__func__.H5L__delete_by_idx_api_common, i32 noundef 899, i64 noundef %33, i64 noundef %34, ptr noundef nonnull @.str.59) #7
  br label %52

36:                                               ; preds = %31
  %37 = call i32 @H5VL_setup_idx_args(i64 noundef %0, ptr noundef nonnull %1, i32 noundef %2, i32 noundef %3, i64 noundef %4, i1 noundef zeroext true, i64 noundef %5, ptr noundef nonnull %12, ptr noundef nonnull %11) #7
  %38 = icmp slt i32 %37, 0
  br i1 %38, label %39, label %43

39:                                               ; preds = %36
  %40 = load i64, ptr @H5E_LINK_g, align 8, !tbaa !3
  %41 = load i64, ptr @H5E_CANTSET_g, align 8, !tbaa !3
  %42 = call i32 (ptr, ptr, i32, i64, i64, ptr, ...) @H5E_printf_stack(ptr noundef nonnull @.str, ptr noundef nonnull @__func__.H5L__delete_by_idx_api_common, i32 noundef 904, i64 noundef %40, i64 noundef %41, ptr noundef nonnull @.str.98) #7
  br label %52

43:                                               ; preds = %36
  store i32 0, ptr %10, align 8, !tbaa !28
  %44 = load ptr, ptr %12, align 8, !tbaa !20
  %45 = load i64, ptr @H5P_LST_DATASET_XFER_ID_g, align 8, !tbaa !3
  %46 = call i32 @H5VL_link_specific(ptr noundef %44, ptr noundef nonnull %11, ptr noundef nonnull %10, i64 noundef %45, ptr noundef %6) #7
  %47 = icmp slt i32 %46, 0
  br i1 %47, label %48, label %52

48:                                               ; preds = %43
  %49 = load i64, ptr @H5E_LINK_g, align 8, !tbaa !3
  %50 = load i64, ptr @H5E_CANTDELETE_g, align 8, !tbaa !3
  %51 = call i32 (ptr, ptr, i32, i64, i64, ptr, ...) @H5E_printf_stack(ptr noundef nonnull @.str, ptr noundef nonnull @__func__.H5L__delete_by_idx_api_common, i32 noundef 911, i64 noundef %49, i64 noundef %50, ptr noundef nonnull @.str.106) #7
  br label %52

52:                                               ; preds = %22, %27, %32, %39, %48, %43, %8
  %.0 = phi i32 [ -1, %27 ], [ -1, %32 ], [ -1, %39 ], [ -1, %48 ], [ 0, %43 ], [ -1, %22 ], [ 0, %8 ]
  call void @llvm.lifetime.end.p0(i64 40, ptr nonnull %11) #7
  call void @llvm.lifetime.end.p0(i64 48, ptr nonnull %10) #7
  call void @llvm.lifetime.end.p0(i64 8, ptr nonnull %9) #7
  ret i32 %.0
}